target datalayout = "e-m:e-p270:32:32-p271:32:32-p272:64:64-i64:64-i128:128-f80:128-n8:16:32:64-S128"
target triple = "x86_64-pc-linux-gnu"

%class.QString = type { ptr }
%class.LayerDialog = type { %class.QDockWidget, ptr, ptr, ptr, ptr, ptr, %class.QMap, i8, [4 x %class.QString], [4 x %class.QMap.16], i32, %"class.std::vector.17", i32, ptr, ptr, i32, ptr, ptr, ptr }
%class.QDockWidget = type { %class.QWidget }
%class.QWidget = type { %class.QObject, %class.QPaintDevice, ptr }
%class.QObject = type { ptr, %class.QScopedPointer }
%class.QScopedPointer = type { ptr }
%class.QPaintDevice = type { ptr, i16, ptr }
%class.QMap = type { ptr }
%class.QMap.16 = type { ptr }
%"class.std::vector.17" = type { %"struct.std::_Vector_base.18" }
%"struct.std::_Vector_base.18" = type { %"struct.std::_Vector_base<int, std::allocator<int>>::_Vector_impl" }
%"struct.std::_Vector_base<int, std::allocator<int>>::_Vector_impl" = type { %"struct.std::_Vector_base<int, std::allocator<int>>::_Vector_impl_data" }
%"struct.std::_Vector_base<int, std::allocator<int>>::_Vector_impl_data" = type { ptr, ptr, ptr }
%class.MultiViewer_Container = type { %class.Splitter, %class.MeshDocument, ptr, i32, ptr, %class.QList.61 }
%class.Splitter = type { %class.QSplitter }
%class.QSplitter = type { %class.QFrame }
%class.QFrame = type { %class.QWidget }
%class.MeshDocument = type { %class.QObject, %class.GLLogStream, %class.FilterScript, %"class.std::__cxx11::list.43", %"class.std::__cxx11::list.48", i32, i32, %class.QString, %class.QString, %class.MeshDocumentStateData, i8, ptr, ptr }
%class.GLLogStream = type { %class.QObject, i32, %class.QList.36, %class.QMultiMap }
%class.QList.36 = type { %union.anon.38 }
%union.anon.38 = type { %struct.QListData }
%struct.QListData = type { ptr }
%class.QMultiMap = type { %class.QMap.39 }
%class.QMap.39 = type { ptr }
%class.FilterScript = type { %class.QObject, %class.QList.40 }
%class.QList.40 = type { %union.anon.42 }
%union.anon.42 = type { %struct.QListData }
%"class.std::__cxx11::list.43" = type { %"class.std::__cxx11::_List_base.44" }
%"class.std::__cxx11::_List_base.44" = type { %"struct.std::__cxx11::_List_base<MeshModel, std::allocator<MeshModel>>::_List_impl" }
%"struct.std::__cxx11::_List_base<MeshModel, std::allocator<MeshModel>>::_List_impl" = type { %"struct.std::__detail::_List_node_header" }
%"struct.std::__detail::_List_node_header" = type { %"struct.std::__detail::_List_node_base", i64 }
%"struct.std::__detail::_List_node_base" = type { ptr, ptr }
%"class.std::__cxx11::list.48" = type { %"class.std::__cxx11::_List_base.49" }
%"class.std::__cxx11::_List_base.49" = type { %"struct.std::__cxx11::_List_base<RasterModel, std::allocator<RasterModel>>::_List_impl" }
%"struct.std::__cxx11::_List_base<RasterModel, std::allocator<RasterModel>>::_List_impl" = type { %"struct.std::__detail::_List_node_header" }
%class.MeshDocumentStateData = type { %class.QReadWriteLock, %class.QMap.55 }
%class.QReadWriteLock = type { %class.QAtomicPointer }
%class.QAtomicPointer = type { %class.QBasicAtomicPointer }
%class.QBasicAtomicPointer = type { %"struct.std::atomic.53" }
%"struct.std::atomic.53" = type { %"struct.std::__atomic_base.54" }
%"struct.std::__atomic_base.54" = type { ptr }
%class.QMap.55 = type { ptr }
%class.QList.61 = type { %union.anon.63 }
%union.anon.63 = type { %struct.QListData }
%class.QKeyEvent = type <{ %class.QInputEvent, %class.QString, i32, i32, i32, i32, i16, i8, [5 x i8] }>
%class.QInputEvent = type { %class.QEvent.base, %class.QFlags.35, i64 }
%class.QEvent.base = type <{ ptr, ptr, i16, i16 }>
%class.QFlags.35 = type { i32 }
%class.RasterModel = type { %class.MeshLabRenderRaster, i8, i32, %class.QString }
%class.MeshLabRenderRaster = type { %"class.vcg::Shot", %class.QList.58, ptr }
%"class.vcg::Shot" = type { %"class.vcg::Camera", %"class.vcg::Shot<float>::ReferenceFrame" }
%"class.vcg::Camera" = type { float, %"class.vcg::Point2", %"class.vcg::Point2.56", %"class.vcg::Point2.56", %"class.vcg::Point2.56", %"struct.std::array", i32 }
%"class.vcg::Point2" = type { [2 x i32] }
%"class.vcg::Point2.56" = type { [2 x float] }
%"struct.std::array" = type { [4 x float] }
%"class.vcg::Shot<float>::ReferenceFrame" = type { %"class.vcg::Matrix44", %"class.vcg::Point3" }
%"class.vcg::Matrix44" = type { %"struct.std::array.57" }
%"struct.std::array.57" = type { [16 x float] }
%"class.vcg::Point3" = type { [3 x float] }
%class.QList.58 = type { %union.anon.60 }
%union.anon.60 = type { %struct.QListData }
%class.MainWindow = type { %class.QMainWindow, %class.MainWindowSetting, %class.QNetworkAccessManager, i32, i32, i8, ptr, ptr, ptr, ptr, ptr, ptr, %class.RichParameterList, ptr, %class.QByteArray, %class.QDir, ptr, ptr, ptr, ptr, ptr, ptr, ptr, ptr, ptr, ptr, ptr, ptr, ptr, ptr, ptr, ptr, ptr, ptr, ptr, ptr, ptr, ptr, ptr, ptr, ptr, ptr, ptr, ptr, ptr, ptr, ptr, ptr, ptr, ptr, ptr, ptr, ptr, ptr, ptr, ptr, ptr, ptr, ptr, ptr, ptr, ptr, ptr, ptr, ptr, ptr, ptr, ptr, ptr, ptr, ptr, ptr, ptr, ptr, [9 x ptr], [9 x ptr], ptr, ptr, ptr, ptr, ptr, ptr, ptr, ptr, ptr, ptr, ptr, ptr, ptr, ptr, ptr, ptr, ptr, ptr, ptr, ptr, ptr, ptr, ptr, ptr, ptr, ptr, ptr, ptr, ptr, ptr, ptr, ptr, ptr, ptr, ptr, ptr, ptr, ptr, ptr, ptr, ptr, ptr, ptr, ptr, ptr, ptr, ptr, ptr, ptr, ptr, ptr, ptr, ptr, ptr, ptr, ptr, ptr, ptr, ptr, ptr, ptr, ptr, ptr, ptr, ptr, ptr }
%class.QMainWindow = type { %class.QWidget }
%class.MainWindowSetting = type <{ i64, i8, [7 x i8], i64, i64, i64, i32, i32, %class.QString, i8, i8, [6 x i8] }>
%class.QNetworkAccessManager = type { %class.QObject }
%class.RichParameterList = type { %"class.std::__cxx11::list" }
%"class.std::__cxx11::list" = type { %"class.std::__cxx11::_List_base" }
%"class.std::__cxx11::_List_base" = type { %"struct.std::__cxx11::_List_base<RichParameter *, std::allocator<RichParameter *>>::_List_impl" }
%"struct.std::__cxx11::_List_base<RichParameter *, std::allocator<RichParameter *>>::_List_impl" = type { %"struct.std::__detail::_List_node_header" }
%class.QByteArray = type { ptr }
%class.QDir = type { %class.QSharedDataPointer }
%class.QSharedDataPointer = type { ptr }

; Function Attrs: mustprogress nounwind uwtable
define linkonce_odr noundef ptr @_ZNK10MainWindow20currentViewContainerEv(ptr noundef nonnull align 8 dereferenceable(1376) %0) #0 comdat align 2 {
  %2 = alloca ptr, align 8
  store ptr %0, ptr %2, align 8
  %3 = load ptr, ptr %2, align 8
  %4 = getelementptr inbounds %class.MainWindow, ptr %3, i32 0, i32 141
  %5 = load ptr, ptr %4, align 8
  ret ptr %5
}

; Function Attrs: mustprogress nounwind uwtable
define linkonce_odr noundef i32 @_ZNK11RasterModel2idEv(ptr noundef nonnull align 8 dereferenceable(168) %0) #0 comdat align 2 {
  %2 = alloca ptr, align 8
  store ptr %0, ptr %2, align 8
  %3 = load ptr, ptr %2, align 8
  %4 = getelementptr inbounds %class.RasterModel, ptr %3, i32 0, i32 2
  %5 = load i32, ptr %4, align 4
  ret i32 %5
}

; Function Attrs: mustprogress nounwind uwtable
define linkonce_odr noundef i32 @_ZNK9QKeyEvent3keyEv(ptr noundef nonnull align 8 dereferenceable(59) %0) #0 comdat align 2 {
  %2 = alloca ptr, align 8
  store ptr %0, ptr %2, align 8
  %3 = load ptr, ptr %2, align 8
  %4 = getelementptr inbounds %class.QKeyEvent, ptr %3, i32 0, i32 2
  %5 = load i32, ptr %4, align 8
  ret i32 %5
}

; Function Attrs: mustprogress uwtable
define linkonce_odr noundef ptr @_ZN10MainWindow7meshDocEv(ptr noundef nonnull align 8 dereferenceable(1376) %0) #5 comdat align 2 {
  %2 = alloca ptr, align 8
  %3 = alloca ptr, align 8
  store ptr %0, ptr %3, align 8
  %4 = load ptr, ptr %3, align 8
  %5 = call noundef ptr @_ZNK10MainWindow20currentViewContainerEv(ptr noundef nonnull align 8 dereferenceable(1376) %4)
  %6 = icmp ne ptr %5, null
  br i1 %6, label %7, label %10

7:                                                ; preds = %1
  %8 = call noundef ptr @_ZNK10MainWindow20currentViewContainerEv(ptr noundef nonnull align 8 dereferenceable(1376) %4)
  %9 = getelementptr inbounds %class.MultiViewer_Container, ptr %8, i32 0, i32 1
  store ptr %9, ptr %2, align 8
  br label %11

10:                                               ; preds = %1
  store ptr null, ptr %2, align 8
  br label %11

11:                                               ; preds = %10, %7
  %12 = load ptr, ptr %2, align 8
  ret ptr %12
}

; Function Attrs: mustprogress uwtable
define void @_ZN11LayerDialog13keyPressEventEP9QKeyEvent(ptr noundef nonnull align 8 dereferenceable(256) %0, ptr noundef %1) unnamed_addr #5 align 2 {
  %3 = alloca ptr, align 8
  %4 = alloca ptr, align 8
  %5 = alloca ptr, align 8
  %6 = alloca ptr, align 8
  store ptr %0, ptr %3, align 8
  store ptr %1, ptr %4, align 8
  %7 = load ptr, ptr %3, align 8
  %8 = getelementptr inbounds %class.LayerDialog, ptr %7, i32 0, i32 2
  %9 = load ptr, ptr %8, align 8
  %10 = call noundef ptr @_ZN10MainWindow7meshDocEv(ptr noundef nonnull align 8 dereferenceable(1376) %9)
  store ptr %10, ptr %5, align 8
  %11 = load ptr, ptr %5, align 8
  %12 = icmp ne ptr %11, null
  br i1 %12, label %13, label %29

13:                                               ; preds = %2
  %14 = load ptr, ptr %4, align 8
  %15 = call noundef i32 @_ZNK9QKeyEvent3keyEv(ptr noundef nonnull align 8 dereferenceable(59) %14)
  %16 = icmp eq i32 %15, 32
  br i1 %16, label %17, label %29

17:                                               ; preds = %13
  %18 = load ptr, ptr %5, align 8
  %19 = load ptr, ptr %5, align 8
  %20 = call noundef ptr @_ZN12MeshDocument2rmEv(ptr noundef nonnull align 8 dereferenceable(192) %19)
  %21 = call noundef ptr @_ZN12MeshDocument10nextRasterEP11RasterModel(ptr noundef nonnull align 8 dereferenceable(192) %18, ptr noundef %20)
  store ptr %21, ptr %6, align 8
  %22 = load ptr, ptr %6, align 8
  %23 = icmp ne ptr %22, null
  br i1 %23, label %24, label %28

24:                                               ; preds = %17
  %25 = load ptr, ptr %5, align 8
  %26 = load ptr, ptr %6, align 8
  %27 = call noundef i32 @_ZNK11RasterModel2idEv(ptr noundef nonnull align 8 dereferenceable(168) %26)
  call void @_ZN12MeshDocument16setCurrentRasterEi(ptr noundef nonnull align 8 dereferenceable(192) %25, i32 noundef %27)
  br label %28

28:                                               ; preds = %24, %17
  br label %29

29:                                               ; preds = %28, %13, %2
  %30 = load ptr, ptr %4, align 8
  %31 = call noundef i32 @_ZNK9QKeyEvent3keyEv(ptr noundef nonnull align 8 dereferenceable(59) %30)
  %32 = icmp eq i32 %31, 16777248
  br i1 %32, label %33, label %41

33:                                               ; preds = %29
  %34 = getelementptr inbounds %class.LayerDialog, ptr %7, i32 0, i32 17
  %35 = load ptr, ptr %34, align 8
  %36 = icmp ne ptr %35, null
  br i1 %36, label %37, label %40

37:                                               ; preds = %33
  %38 = getelementptr inbounds %class.LayerDialog, ptr %7, i32 0, i32 17
  %39 = load ptr, ptr %38, align 8
  call void @_ZN9QCheckBox13setCheckStateEN2Qt10CheckStateE(ptr noundef nonnull align 8 dereferenceable(48) %39, i32 noundef 2)
  br label %40

40:                                               ; preds = %37, %33
  br label %41

41:                                               ; preds = %40, %29
  %42 = load ptr, ptr %4, align 8
  %43 = call noundef i32 @_ZNK9QKeyEvent3keyEv(ptr noundef nonnull align 8 dereferenceable(59) %42)
  %44 = icmp eq i32 %43, 16777249
  br i1 %44, label %45, label %47

45:                                               ; preds = %41
  %46 = getelementptr inbounds %class.LayerDialog, ptr %7, i32 0, i32 7
  store i8 1, ptr %46, align 8
  br label %47

47:                                               ; preds = %45, %41
  ret void
}