; Function Attrs: mustprogress uwtable
define void @_ZN11LayerDialog13keyPressEventEP9QKeyEvent(ptr nocapture noundef nonnull align 8 dereferenceable(256) %0, ptr nocapture noundef readonly %1) unnamed_addr #9 align 2 {
  %3 = getelementptr inbounds i8, ptr %0, i64 56
  %4 = load ptr, ptr %3, align 8
  %5 = getelementptr inbounds i8, ptr %4, i64 1368
  %6 = load ptr, ptr %5, align 8
  %.not.i = icmp eq ptr %6, null
  %7 = getelementptr inbounds i8, ptr %6, i64 48
  br i1 %.not.i, label %18, label %8

8:                                                ; preds = %2
  %9 = getelementptr inbounds i8, ptr %1, i64 40
  %10 = load i32, ptr %9, align 8
  %11 = icmp eq i32 %10, 32
  br i1 %11, label %12, label %18

12:                                               ; preds = %8
  %13 = tail call noundef ptr @_ZN12MeshDocument2rmEv(ptr noundef nonnull align 8 dereferenceable(192) %7)
  %14 = tail call noundef ptr @_ZN12MeshDocument10nextRasterEP11RasterModel(ptr noundef nonnull align 8 dereferenceable(192) %7, ptr noundef %13)
  %.not12 = icmp eq ptr %14, null
  br i1 %.not12, label %18, label %15

15:                                               ; preds = %12
  %16 = getelementptr inbounds i8, ptr %14, i64 156
  %17 = load i32, ptr %16, align 4
  tail call void @_ZN12MeshDocument16setCurrentRasterEi(ptr noundef nonnull align 8 dereferenceable(192) %7, i32 noundef %17)
  br label %18

18:                                               ; preds = %12, %15, %8, %2
  %19 = getelementptr inbounds i8, ptr %1, i64 40
  %20 = load i32, ptr %19, align 8
  %21 = icmp eq i32 %20, 16777248
  br i1 %21, label %22, label %thread-pre-split

22:                                               ; preds = %18
  %23 = getelementptr inbounds i8, ptr %0, i64 240
  %24 = load ptr, ptr %23, align 8
  %.not13 = icmp eq ptr %24, null
  br i1 %.not13, label %thread-pre-split.thread, label %25

25:                                               ; preds = %22
  tail call void @_ZN9QCheckBox13setCheckStateEN2Qt10CheckStateE(ptr noundef nonnull align 8 dereferenceable(48) %24, i32 noundef 2)
  %.pr.pre = load i32, ptr %19, align 8
  br label %thread-pre-split

thread-pre-split:                                 ; preds = %25, %18
  %26 = phi i32 [ %20, %18 ], [ %.pr.pre, %25 ]
  %27 = icmp eq i32 %26, 16777249
  br i1 %27, label %28, label %thread-pre-split.thread

28:                                               ; preds = %thread-pre-split
  %29 = getelementptr inbounds i8, ptr %0, i64 96
  store i8 1, ptr %29, align 8
  br label %thread-pre-split.thread

thread-pre-split.thread:                          ; preds = %22, %28, %thread-pre-split
  ret void
}